target datalayout = "e-m:e-p270:32:32-p271:32:32-p272:64:64-i64:64-i128:128-f80:128-n8:16:32:64-S128"
target triple = "x86_64-pc-linux-gnu"

%struct.AVRational = type { i32, i32 }
%struct.AVStream = type { ptr, i32, i32, ptr, ptr, %struct.AVRational, i64, i64, i64, i32, i32, %struct.AVRational, ptr, %struct.AVRational, %struct.AVPacket, i32, %struct.AVRational, i32 }
%struct.AVPacket = type { ptr, i64, i64, ptr, i32, i32, i32, ptr, i32, i64, i64, ptr, ptr, %struct.AVRational }
%struct.AVFormatContext = type { ptr, ptr, ptr, ptr, ptr, i32, i32, ptr, i32, ptr, i32, ptr, ptr, i64, i64, i64, i32, i32, i32, i64, i64, ptr, i32, i32, ptr, i32, i32, i32, i32, ptr, i64, i32, i32, %struct.AVIOInterruptCB, i32, i32, i32, i32, i64, i32, i32, i32, i32, i32, i32, i32, i32, i32, i32, i32, i32, i64, i32, i32, i32, i32, i32, ptr, ptr, ptr, ptr, i32, ptr, ptr, ptr, ptr, i32, ptr, ptr, i64, ptr, ptr, ptr, i64 }
%struct.AVIOInterruptCB = type { ptr, ptr }
%struct.AVCodecParameters = type { i32, i32, i32, ptr, i32, ptr, i32, i32, i64, i32, i32, i32, i32, i32, i32, %struct.AVRational, %struct.AVRational, i32, i32, i32, i32, i32, i32, i32, %struct.AVChannelLayout, i32, i32, i32, i32, i32, i32 }
%struct.AVChannelLayout = type { i32, i32, %union.anon.3, ptr }
%union.anon.3 = type { i64 }

; Function Attrs: nounwind uwtable
define ptr @ff_find_decoder(ptr noundef %0, ptr noundef %1, i32 noundef %2) #0 {
  %4 = alloca ptr, align 8
  %5 = alloca ptr, align 8
  %6 = alloca ptr, align 8
  %7 = alloca i32, align 4
  store ptr %0, ptr %5, align 8, !tbaa !47
  store ptr %1, ptr %6, align 8, !tbaa !10
  store i32 %2, ptr %7, align 4, !tbaa !74
  %8 = load ptr, ptr %6, align 8, !tbaa !10
  %9 = getelementptr inbounds nuw %struct.AVStream, ptr %8, i32 0, i32 3
  %10 = load ptr, ptr %9, align 8, !tbaa !99
  %11 = getelementptr inbounds nuw %struct.AVCodecParameters, ptr %10, i32 0, i32 0
  %12 = load i32, ptr %11, align 8, !tbaa !117
  switch i32 %12, label %43 [
    i32 0, label %13
    i32 1, label %23
    i32 3, label %33
  ]

13:                                               ; preds = %3
  %14 = load ptr, ptr %5, align 8, !tbaa !47
  %15 = getelementptr inbounds nuw %struct.AVFormatContext, ptr %14, i32 0, i32 62
  %16 = load ptr, ptr %15, align 8, !tbaa !135
  %17 = icmp ne ptr %16, null
  br i1 %17, label %18, label %22

18:                                               ; preds = %13
  %19 = load ptr, ptr %5, align 8, !tbaa !47
  %20 = getelementptr inbounds nuw %struct.AVFormatContext, ptr %19, i32 0, i32 62
  %21 = load ptr, ptr %20, align 8, !tbaa !135
  store ptr %21, ptr %4, align 8
  br label %46

22:                                               ; preds = %13
  br label %43

23:                                               ; preds = %3
  %24 = load ptr, ptr %5, align 8, !tbaa !47
  %25 = getelementptr inbounds nuw %struct.AVFormatContext, ptr %24, i32 0, i32 63
  %26 = load ptr, ptr %25, align 8, !tbaa !136
  %27 = icmp ne ptr %26, null
  br i1 %27, label %28, label %32

28:                                               ; preds = %23
  %29 = load ptr, ptr %5, align 8, !tbaa !47
  %30 = getelementptr inbounds nuw %struct.AVFormatContext, ptr %29, i32 0, i32 63
  %31 = load ptr, ptr %30, align 8, !tbaa !136
  store ptr %31, ptr %4, align 8
  br label %46

32:                                               ; preds = %23
  br label %43

33:                                               ; preds = %3
  %34 = load ptr, ptr %5, align 8, !tbaa !47
  %35 = getelementptr inbounds nuw %struct.AVFormatContext, ptr %34, i32 0, i32 64
  %36 = load ptr, ptr %35, align 8, !tbaa !137
  %37 = icmp ne ptr %36, null
  br i1 %37, label %38, label %42

38:                                               ; preds = %33
  %39 = load ptr, ptr %5, align 8, !tbaa !47
  %40 = getelementptr inbounds nuw %struct.AVFormatContext, ptr %39, i32 0, i32 64
  %41 = load ptr, ptr %40, align 8, !tbaa !137
  store ptr %41, ptr %4, align 8
  br label %46

42:                                               ; preds = %33
  br label %43

43:                                               ; preds = %3, %42, %32, %22
  %44 = load i32, ptr %7, align 4, !tbaa !74
  %45 = call ptr @avcodec_find_decoder(i32 noundef %44)
  store ptr %45, ptr %4, align 8
  br label %46

46:                                               ; preds = %43, %38, %28, %18
  %47 = load ptr, ptr %4, align 8
  ret ptr %47
}