; Function Attrs: nounwind uwtable
define ptr @ff_find_decoder(ptr noundef readonly captures(none) %0, ptr noundef readonly captures(none) %1, i32 noundef %2) local_unnamed_addr #0 {
  %4 = getelementptr inbounds nuw i8, ptr %1, i64 16
  %5 = load ptr, ptr %4, align 8, !tbaa !87
  %6 = load i32, ptr %5, align 8, !tbaa !105
  switch i32 %6, label %16 [
    i32 0, label %7
    i32 1, label %10
    i32 3, label %13
  ]

7:                                                ; preds = %3
  %8 = getelementptr inbounds nuw i8, ptr %0, i64 376
  %9 = load ptr, ptr %8, align 8, !tbaa !115
  %.not12 = icmp eq ptr %9, null
  br i1 %.not12, label %16, label %18

10:                                               ; preds = %3
  %11 = getelementptr inbounds nuw i8, ptr %0, i64 384
  %12 = load ptr, ptr %11, align 8, !tbaa !116
  %.not11 = icmp eq ptr %12, null
  br i1 %.not11, label %16, label %18

13:                                               ; preds = %3
  %14 = getelementptr inbounds nuw i8, ptr %0, i64 392
  %15 = load ptr, ptr %14, align 8, !tbaa !117
  %.not = icmp eq ptr %15, null
  br i1 %.not, label %16, label %18

16:                                               ; preds = %13, %10, %7, %3
  %17 = tail call ptr @avcodec_find_decoder(i32 noundef %2) #13
  br label %18

18:                                               ; preds = %13, %10, %7, %16
  %.0 = phi ptr [ %17, %16 ], [ %9, %7 ], [ %12, %10 ], [ %15, %13 ]
  ret ptr %.0
}